target datalayout = "e-m:e-p270:32:32-p271:32:32-p272:64:64-i64:64-i128:128-f80:128-n8:16:32:64-S128"
target triple = "x86_64-unknown-linux-gnu"

@.str.9 = private unnamed_addr constant [61 x i8] c"Cardinality for BAG_DIFFERENCE_REMOVE is not implemented yet\00", align 1
@_ZTIN4cvc58internal14LogicExceptionE = linkonce_odr hidden constant { ptr, ptr, ptr } { ptr getelementptr inbounds (ptr, ptr @_ZTVN10__cxxabiv120__si_class_type_infoE, i64 2), ptr @_ZTSN4cvc58internal14LogicExceptionE, ptr @_ZTIN4cvc58internal9ExceptionE }, comdat, align 8

; Function Attrs: mustprogress uwtable
define hidden void @_ZN4cvc58internal6theory4bags10CardSolver21checkDifferenceRemoveERKSt4pairINS0_12NodeTemplateILb1EEES6_ERKS6_(ptr noundef nonnull align 8 dereferenceable(176) %this, ptr noundef nonnull align 8 dereferenceable(16) %pair, ptr noundef nonnull align 8 dereferenceable(8) %n) #4 align 2 personality ptr @__gxx_personality_v0 {
entry:
  %this.addr = alloca ptr, align 8
  %pair.addr = alloca ptr, align 8
  %n.addr = alloca ptr, align 8
  %exn.slot = alloca ptr, align 8
  %ehselector.slot = alloca i32, align 4
  store ptr %this, ptr %this.addr, align 8
  store ptr %pair, ptr %pair.addr, align 8
  store ptr %n, ptr %n.addr, align 8
  %exception = call ptr @__cxa_allocate_exception(i64 40) #3
  invoke void @_ZN4cvc58internal14LogicExceptionC2EPKc(ptr noundef nonnull align 8 dereferenceable(40) %exception, ptr noundef @.str.9)
          to label %invoke.cont unwind label %lpad

invoke.cont:                                      ; preds = %entry
  call void @__cxa_throw(ptr %exception, ptr @_ZTIN4cvc58internal14LogicExceptionE, ptr @_ZN4cvc58internal14LogicExceptionD2Ev) #17
  unreachable

lpad:                                             ; preds = %entry
  %0 = landingpad { ptr, i32 }
          cleanup
  %1 = extractvalue { ptr, i32 } %0, 0
  store ptr %1, ptr %exn.slot, align 8
  %2 = extractvalue { ptr, i32 } %0, 1
  store i32 %2, ptr %ehselector.slot, align 4
  call void @__cxa_free_exception(ptr %exception) #3
  br label %eh.resume

eh.resume:                                        ; preds = %lpad
  %exn = load ptr, ptr %exn.slot, align 8
  %sel = load i32, ptr %ehselector.slot, align 4
  %lpad.val = insertvalue { ptr, i32 } poison, ptr %exn, 0
  %lpad.val2 = insertvalue { ptr, i32 } %lpad.val, i32 %sel, 1
  resume { ptr, i32 } %lpad.val2
}