; Function Attrs: mustprogress noreturn uwtable
define hidden void @_ZN4cvc58internal6theory4bags10CardSolver21checkDifferenceRemoveERKSt4pairINS0_12NodeTemplateILb1EEES6_ERKS6_(ptr nocapture noundef nonnull readnone align 8 dereferenceable(176) %this, ptr nocapture noundef nonnull readnone align 8 dereferenceable(16) %pair, ptr nocapture noundef nonnull readnone align 8 dereferenceable(8) %n) local_unnamed_addr #7 align 2 personality ptr @__gxx_personality_v0 {
entry:
  %exception = tail call ptr @__cxa_allocate_exception(i64 40) #17
  invoke void @_ZN4cvc58internal14LogicExceptionC2EPKc(ptr noundef nonnull align 8 dereferenceable(40) %exception, ptr noundef nonnull @.str.9)
          to label %invoke.cont unwind label %lpad

invoke.cont:                                      ; preds = %entry
  tail call void @__cxa_throw(ptr nonnull %exception, ptr nonnull @_ZTIN4cvc58internal14LogicExceptionE, ptr nonnull @_ZN4cvc58internal14LogicExceptionD2Ev) #21
  unreachable

lpad:                                             ; preds = %entry
  %0 = landingpad { ptr, i32 }
          cleanup
  tail call void @__cxa_free_exception(ptr %exception) #17
  resume { ptr, i32 } %0
}